; ModuleID = '11/270.c'
source_filename = "11/270.c"
target datalayout = "e-m:e-p270:32:32-p271:32:32-p272:64:64-i64:64-f80:128-n8:16:32:64-S128"
target triple = "x86_64-pc-linux-gnu"

@__const.main.c = private unnamed_addr constant [12 x i64] [i64 0, i64 31, i64 60, i64 91, i64 121, i64 152, i64 182, i64 213, i64 244, i64 274, i64 305, i64 335], align 16
@__const.main.b = private unnamed_addr constant [12 x i64] [i64 0, i64 31, i64 59, i64 90, i64 120, i64 151, i64 181, i64 212, i64 243, i64 273, i64 304, i64 334], align 16
@.str = private unnamed_addr constant [12 x i8] c"%ld %ld %ld\00", align 1
@.str.1 = private unnamed_addr constant [5 x i8] c"%ld\0A\00", align 1

; Function Attrs: noinline nounwind uwtable
define dso_local i32 @main() #0 {
  %1 = alloca i32, align 4
  %2 = alloca i32, align 4
  %3 = alloca [5 x i64], align 16
  %4 = alloca [5 x i64], align 16
  %5 = alloca [5 x i64], align 16
  %6 = alloca [5 x i64], align 16
  %7 = alloca [12 x i64], align 16
  %8 = alloca [12 x i64], align 16
  store i32 0, i32* %1, align 4
  %9 = bitcast [12 x i64]* %7 to i8*
  call void @llvm.memcpy.p0i8.p0i8.i64(i8* align 16 %9, i8* align 16 bitcast ([12 x i64]* @__const.main.c to i8*), i64 96, i1 false)
  %10 = bitcast [12 x i64]* %8 to i8*
  call void @llvm.memcpy.p0i8.p0i8.i64(i8* align 16 %10, i8* align 16 bitcast ([12 x i64]* @__const.main.b to i8*), i64 96, i1 false)
  store i32 0, i32* %2, align 4
  br label %11

11:                                               ; preds = %78, %0
  %12 = load i32, i32* %2, align 4
  %13 = icmp sle i32 %12, 4
  br i1 %13, label %14, label %81

14:                                               ; preds = %11
  %15 = load i32, i32* %2, align 4
  %16 = sext i32 %15 to i64
  %17 = getelementptr inbounds [5 x i64], [5 x i64]* %3, i64 0, i64 %16
  %18 = load i32, i32* %2, align 4
  %19 = sext i32 %18 to i64
  %20 = getelementptr inbounds [5 x i64], [5 x i64]* %4, i64 0, i64 %19
  %21 = load i32, i32* %2, align 4
  %22 = sext i32 %21 to i64
  %23 = getelementptr inbounds [5 x i64], [5 x i64]* %5, i64 0, i64 %22
  %24 = call i32 (i8*, ...) @__isoc99_scanf(i8* getelementptr inbounds ([12 x i8], [12 x i8]* @.str, i64 0, i64 0), i64* %17, i64* %20, i64* %23)
  %25 = load i32, i32* %2, align 4
  %26 = sext i32 %25 to i64
  %27 = getelementptr inbounds [5 x i64], [5 x i64]* %3, i64 0, i64 %26
  %28 = load i64, i64* %27, align 8
  %29 = srem i64 %28, 4
  %30 = icmp eq i64 %29, 0
  br i1 %30, label %31, label %38

31:                                               ; preds = %14
  %32 = load i32, i32* %2, align 4
  %33 = sext i32 %32 to i64
  %34 = getelementptr inbounds [5 x i64], [5 x i64]* %3, i64 0, i64 %33
  %35 = load i64, i64* %34, align 8
  %36 = srem i64 %35, 100
  %37 = icmp ne i64 %36, 0
  br i1 %37, label %45, label %38

38:                                               ; preds = %31, %14
  %39 = load i32, i32* %2, align 4
  %40 = sext i32 %39 to i64
  %41 = getelementptr inbounds [5 x i64], [5 x i64]* %3, i64 0, i64 %40
  %42 = load i64, i64* %41, align 8
  %43 = srem i64 %42, 400
  %44 = icmp eq i64 %43, 0
  br i1 %44, label %45, label %61

45:                                               ; preds = %38, %31
  %46 = load i32, i32* %2, align 4
  %47 = sext i32 %46 to i64
  %48 = getelementptr inbounds [5 x i64], [5 x i64]* %4, i64 0, i64 %47
  %49 = load i64, i64* %48, align 8
  %50 = sub nsw i64 %49, 1
  %51 = getelementptr inbounds [12 x i64], [12 x i64]* %7, i64 0, i64 %50
  %52 = load i64, i64* %51, align 8
  %53 = load i32, i32* %2, align 4
  %54 = sext i32 %53 to i64
  %55 = getelementptr inbounds [5 x i64], [5 x i64]* %5, i64 0, i64 %54
  %56 = load i64, i64* %55, align 8
  %57 = add nsw i64 %52, %56
  %58 = load i32, i32* %2, align 4
  %59 = sext i32 %58 to i64
  %60 = getelementptr inbounds [5 x i64], [5 x i64]* %6, i64 0, i64 %59
  store i64 %57, i64* %60, align 8
  br label %77

61:                                               ; preds = %38
  %62 = load i32, i32* %2, align 4
  %63 = sext i32 %62 to i64
  %64 = getelementptr inbounds [5 x i64], [5 x i64]* %4, i64 0, i64 %63
  %65 = load i64, i64* %64, align 8
  %66 = sub nsw i64 %65, 1
  %67 = getelementptr inbounds [12 x i64], [12 x i64]* %8, i64 0, i64 %66
  %68 = load i64, i64* %67, align 8
  %69 = load i32, i32* %2, align 4
  %70 = sext i32 %69 to i64
  %71 = getelementptr inbounds [5 x i64], [5 x i64]* %5, i64 0, i64 %70
  %72 = load i64, i64* %71, align 8
  %73 = add nsw i64 %68, %72
  %74 = load i32, i32* %2, align 4
  %75 = sext i32 %74 to i64
  %76 = getelementptr inbounds [5 x i64], [5 x i64]* %6, i64 0, i64 %75
  store i64 %73, i64* %76, align 8
  br label %77

77:                                               ; preds = %61, %45
  br label %78

78:                                               ; preds = %77
  %79 = load i32, i32* %2, align 4
  %80 = add nsw i32 %79, 1
  store i32 %80, i32* %2, align 4
  br label %11

81:                                               ; preds = %11
  store i32 0, i32* %2, align 4
  br label %82

82:                                               ; preds = %91, %81
  %83 = load i32, i32* %2, align 4
  %84 = icmp sle i32 %83, 4
  br i1 %84, label %85, label %94

85:                                               ; preds = %82
  %86 = load i32, i32* %2, align 4
  %87 = sext i32 %86 to i64
  %88 = getelementptr inbounds [5 x i64], [5 x i64]* %6, i64 0, i64 %87
  %89 = load i64, i64* %88, align 8
  %90 = call i32 (i8*, ...) @printf(i8* getelementptr inbounds ([5 x i8], [5 x i8]* @.str.1, i64 0, i64 0), i64 %89)
  br label %91

91:                                               ; preds = %85
  %92 = load i32, i32* %2, align 4
  %93 = add nsw i32 %92, 1
  store i32 %93, i32* %2, align 4
  br label %82

94:                                               ; preds = %82
  ret i32 0
}

; Function Attrs: argmemonly nounwind willreturn
declare void @llvm.memcpy.p0i8.p0i8.i64(i8* noalias nocapture writeonly, i8* noalias nocapture readonly, i64, i1 immarg) #1

declare dso_local i32 @__isoc99_scanf(i8*, ...) #2

declare dso_local i32 @printf(i8*, ...) #2


!llvm.module.flags = !{!0}
!llvm.ident = !{!1}

!0 = !{i32 1, !"wchar_size", i32 4}
!1 = !{!"clang version 10.0.0-4ubuntu1 "}
